target datalayout = "e-m:e-p270:32:32-p271:32:32-p272:64:64-i64:64-i128:128-f80:128-n8:16:32:64-S128"
target triple = "x86_64-pc-linux-gnu"

%"class.folly::SocketAddress" = type <{ %"union.folly::SocketAddress::AddrStorage", i16, i8, [5 x i8] }>
%"union.folly::SocketAddress::AddrStorage" = type { %"struct.folly::SocketAddress::ExternalUnixAddr", [8 x i8] }
%"struct.folly::SocketAddress::ExternalUnixAddr" = type { ptr, i32 }

@_ZZN5folly20AsyncSocketTransport10anyAddressEvE10anyAddress = internal global %"class.folly::SocketAddress" zeroinitializer, align 8
@_ZGVZN5folly20AsyncSocketTransport10anyAddressEvE10anyAddress = internal global i64 0, align 8
@.str = private unnamed_addr constant [8 x i8] c"0.0.0.0\00", align 1
@__dso_handle = external hidden global i8

; Function Attrs: mustprogress uwtable
define linkonce_odr void @_ZN5folly13SocketAddress11AddrStorageC2Ev(ptr noundef nonnull align 8 dereferenceable(24) %0) unnamed_addr #0 comdat align 2 {
  %2 = alloca ptr, align 8
  store ptr %0, ptr %2, align 8, !tbaa !24
  %3 = load ptr, ptr %2, align 8
  call void @_ZN5folly9IPAddressC1Ev(ptr noundef nonnull align 4 dereferenceable(22) %3)
  ret void
}

; Function Attrs: mustprogress uwtable
define linkonce_odr void @_ZN5folly13SocketAddressC2EPKctb(ptr noundef nonnull align 8 dereferenceable(27) %0, ptr noundef %1, i16 noundef zeroext %2, i1 noundef zeroext %3) unnamed_addr #0 comdat align 2 {
  %5 = alloca ptr, align 8
  %6 = alloca ptr, align 8
  %7 = alloca i16, align 2
  %8 = alloca i8, align 1
  store ptr %0, ptr %5, align 8, !tbaa !8
  store ptr %1, ptr %6, align 8, !tbaa !13
  store i16 %2, ptr %7, align 2, !tbaa !15
  %9 = zext i1 %3 to i8
  store i8 %9, ptr %8, align 1, !tbaa !17
  %10 = load ptr, ptr %5, align 8
  %11 = getelementptr inbounds nuw %"class.folly::SocketAddress", ptr %10, i32 0, i32 0
  call void @_ZN5folly13SocketAddress11AddrStorageC2Ev(ptr noundef nonnull align 8 dereferenceable(24) %11)
  %12 = getelementptr inbounds nuw %"class.folly::SocketAddress", ptr %10, i32 0, i32 1
  store i16 0, ptr %12, align 8, !tbaa !19
  %13 = getelementptr inbounds nuw %"class.folly::SocketAddress", ptr %10, i32 0, i32 2
  store i8 0, ptr %13, align 2, !tbaa !21
  %14 = load i8, ptr %8, align 1, !tbaa !17, !range !22, !noundef !23
  %15 = trunc i8 %14 to i1
  br i1 %15, label %16, label %19

16:                                               ; preds = %4
  %17 = load ptr, ptr %6, align 8, !tbaa !13
  %18 = load i16, ptr %7, align 2, !tbaa !15
  call void @_ZN5folly13SocketAddress15setFromHostPortEPKct(ptr noundef nonnull align 8 dereferenceable(27) %10, ptr noundef %17, i16 noundef zeroext %18)
  br label %22

19:                                               ; preds = %4
  %20 = load ptr, ptr %6, align 8, !tbaa !13
  %21 = load i16, ptr %7, align 2, !tbaa !15
  call void @_ZN5folly13SocketAddress13setFromIpPortEPKct(ptr noundef nonnull align 8 dereferenceable(27) %10, ptr noundef %20, i16 noundef zeroext %21)
  br label %22

22:                                               ; preds = %19, %16
  ret void
}

; Function Attrs: mustprogress uwtable
define noundef nonnull align 8 dereferenceable(27) ptr @_ZN5folly20AsyncSocketTransport10anyAddressEv() #0 align 2 personality ptr @__gxx_personality_v0 {
  %1 = alloca ptr, align 8
  %2 = alloca i32, align 4
  %3 = load atomic i8, ptr @_ZGVZN5folly20AsyncSocketTransport10anyAddressEvE10anyAddress acquire, align 8
  %4 = icmp eq i8 %3, 0
  br i1 %4, label %5, label %11, !prof !7

5:                                                ; preds = %0
  %6 = call i32 @__cxa_guard_acquire(ptr @_ZGVZN5folly20AsyncSocketTransport10anyAddressEvE10anyAddress) #1
  %7 = icmp ne i32 %6, 0
  br i1 %7, label %8, label %11

8:                                                ; preds = %5
  invoke void @_ZN5folly13SocketAddressC2EPKctb(ptr noundef nonnull align 8 dereferenceable(27) @_ZZN5folly20AsyncSocketTransport10anyAddressEvE10anyAddress, ptr noundef @.str, i16 noundef zeroext 0, i1 noundef zeroext false)
          to label %9 unwind label %12

9:                                                ; preds = %8
  %10 = call i32 @__cxa_atexit(ptr @_ZN5folly13SocketAddressD2Ev, ptr @_ZZN5folly20AsyncSocketTransport10anyAddressEvE10anyAddress, ptr @__dso_handle) #1
  call void @__cxa_guard_release(ptr @_ZGVZN5folly20AsyncSocketTransport10anyAddressEvE10anyAddress) #1
  br label %11

11:                                               ; preds = %9, %5, %0
  ret ptr @_ZZN5folly20AsyncSocketTransport10anyAddressEvE10anyAddress

12:                                               ; preds = %8
  %13 = landingpad { ptr, i32 }
          cleanup
  %14 = extractvalue { ptr, i32 } %13, 0
  store ptr %14, ptr %1, align 8
  %15 = extractvalue { ptr, i32 } %13, 1
  store i32 %15, ptr %2, align 4
  call void @__cxa_guard_abort(ptr @_ZGVZN5folly20AsyncSocketTransport10anyAddressEvE10anyAddress) #1
  br label %16

16:                                               ; preds = %12
  %17 = load ptr, ptr %1, align 8
  %18 = load i32, ptr %2, align 4
  %19 = insertvalue { ptr, i32 } poison, ptr %17, 0
  %20 = insertvalue { ptr, i32 } %19, i32 %18, 1
  resume { ptr, i32 } %20
}