; Function Attrs: mustprogress uwtable
define noundef nonnull align 8 dereferenceable(27) ptr @_ZN5folly20AsyncSocketTransport10anyAddressEv() local_unnamed_addr #0 align 2 personality ptr @__gxx_personality_v0 {
  %1 = load atomic i8, ptr @_ZGVZN5folly20AsyncSocketTransport10anyAddressEvE10anyAddress acquire, align 8
  %2 = icmp eq i8 %1, 0
  br i1 %2, label %3, label %7, !prof !7

3:                                                ; preds = %0
  %4 = tail call i32 @__cxa_guard_acquire(ptr nonnull @_ZGVZN5folly20AsyncSocketTransport10anyAddressEvE10anyAddress) #5
  %.not = icmp eq i32 %4, 0
  br i1 %.not, label %7, label %5

5:                                                ; preds = %3
  invoke void @_ZN5folly9IPAddressC1Ev(ptr noundef nonnull align 8 dereferenceable(24) @_ZZN5folly20AsyncSocketTransport10anyAddressEvE10anyAddress)
          to label %.noexc unwind label %8

.noexc:                                           ; preds = %5
  store i16 0, ptr getelementptr inbounds nuw (i8, ptr @_ZZN5folly20AsyncSocketTransport10anyAddressEvE10anyAddress, i64 24), align 8, !tbaa !8
  store i8 0, ptr getelementptr inbounds nuw (i8, ptr @_ZZN5folly20AsyncSocketTransport10anyAddressEvE10anyAddress, i64 26), align 2, !tbaa !14
  invoke void @_ZN5folly13SocketAddress13setFromIpPortEPKct(ptr noundef nonnull align 8 dereferenceable(27) @_ZZN5folly20AsyncSocketTransport10anyAddressEvE10anyAddress, ptr noundef nonnull @.str, i16 noundef zeroext 0)
          to label %_ZN5folly13SocketAddressC2EPKctb.exit unwind label %8

_ZN5folly13SocketAddressC2EPKctb.exit:            ; preds = %.noexc
  %6 = tail call i32 @__cxa_atexit(ptr nonnull @_ZN5folly13SocketAddressD2Ev, ptr nonnull @_ZZN5folly20AsyncSocketTransport10anyAddressEvE10anyAddress, ptr nonnull @__dso_handle) #5
  tail call void @__cxa_guard_release(ptr nonnull @_ZGVZN5folly20AsyncSocketTransport10anyAddressEvE10anyAddress) #5
  br label %7

7:                                                ; preds = %_ZN5folly13SocketAddressC2EPKctb.exit, %3, %0
  ret ptr @_ZZN5folly20AsyncSocketTransport10anyAddressEvE10anyAddress

8:                                                ; preds = %.noexc, %5
  %9 = landingpad { ptr, i32 }
          cleanup
  tail call void @__cxa_guard_abort(ptr nonnull @_ZGVZN5folly20AsyncSocketTransport10anyAddressEvE10anyAddress) #5
  resume { ptr, i32 } %9
}